target datalayout = "e-m:e-p270:32:32-p271:32:32-p272:64:64-i64:64-i128:128-f80:128-n8:16:32:64-S128"
target triple = "x86_64-pc-linux-gnu"

%struct.kh_oid_map = type { i32, i32, i32, i32, ptr, ptr, ptr }
%struct.island_bitmap = type { i32, [0 x i32] }

@island_marks = internal global ptr null, align 8

; Function Attrs: inlinehint nounwind uwtable
define internal void @kh_release_oid_map(ptr noundef %0) #2 {
  %2 = alloca ptr, align 8
  store ptr %0, ptr %2, align 8, !tbaa !9
  %3 = load ptr, ptr %2, align 8, !tbaa !9
  %4 = getelementptr inbounds nuw %struct.kh_oid_map, ptr %3, i32 0, i32 4
  %5 = load ptr, ptr %4, align 8, !tbaa !20
  call void @free(ptr noundef %5) #10
  %6 = load ptr, ptr %2, align 8, !tbaa !9
  %7 = getelementptr inbounds nuw %struct.kh_oid_map, ptr %6, i32 0, i32 5
  %8 = load ptr, ptr %7, align 8, !tbaa !21
  call void @free(ptr noundef %8) #10
  %9 = load ptr, ptr %2, align 8, !tbaa !9
  %10 = getelementptr inbounds nuw %struct.kh_oid_map, ptr %9, i32 0, i32 6
  %11 = load ptr, ptr %10, align 8, !tbaa !18
  call void @free(ptr noundef %11) #10
  ret void
}

; Function Attrs: inlinehint nounwind uwtable
define internal void @kh_destroy_oid_map(ptr noundef %0) #2 {
  %2 = alloca ptr, align 8
  store ptr %0, ptr %2, align 8, !tbaa !9
  %3 = load ptr, ptr %2, align 8, !tbaa !9
  %4 = icmp ne ptr %3, null
  br i1 %4, label %5, label %8

5:                                                ; preds = %1
  %6 = load ptr, ptr %2, align 8, !tbaa !9
  call void @kh_release_oid_map(ptr noundef %6)
  %7 = load ptr, ptr %2, align 8, !tbaa !9
  call void @free(ptr noundef %7) #10
  br label %8

8:                                                ; preds = %5, %1
  ret void
}

; Function Attrs: nounwind uwtable
define dso_local void @free_island_marks() #0 {
  %1 = alloca ptr, align 8
  %2 = alloca i32, align 4
  call void @llvm.lifetime.start.p0(i64 8, ptr %1) #10
  %3 = load ptr, ptr @island_marks, align 8, !tbaa !9
  %4 = icmp ne ptr %3, null
  br i1 %4, label %5, label %49

5:                                                ; preds = %0
  call void @llvm.lifetime.start.p0(i64 4, ptr %2) #10
  store i32 0, ptr %2, align 4, !tbaa !13
  br label %6

6:                                                ; preds = %44, %5
  %7 = load i32, ptr %2, align 4, !tbaa !13
  %8 = load ptr, ptr @island_marks, align 8, !tbaa !9
  %9 = getelementptr inbounds nuw %struct.kh_oid_map, ptr %8, i32 0, i32 0
  %10 = load i32, ptr %9, align 8, !tbaa !15
  %11 = icmp ne i32 %7, %10
  br i1 %11, label %12, label %47

12:                                               ; preds = %6
  %13 = load ptr, ptr @island_marks, align 8, !tbaa !9
  %14 = getelementptr inbounds nuw %struct.kh_oid_map, ptr %13, i32 0, i32 4
  %15 = load ptr, ptr %14, align 8, !tbaa !20
  %16 = load i32, ptr %2, align 4, !tbaa !13
  %17 = lshr i32 %16, 4
  %18 = zext i32 %17 to i64
  %19 = getelementptr inbounds nuw i32, ptr %15, i64 %18
  %20 = load i32, ptr %19, align 4, !tbaa !13
  %21 = load i32, ptr %2, align 4, !tbaa !13
  %22 = and i32 %21, 15
  %23 = shl i32 %22, 1
  %24 = lshr i32 %20, %23
  %25 = and i32 %24, 3
  %26 = icmp ne i32 %25, 0
  br i1 %26, label %27, label %28

27:                                               ; preds = %12
  br label %44

28:                                               ; preds = %12
  %29 = load ptr, ptr @island_marks, align 8, !tbaa !9
  %30 = getelementptr inbounds nuw %struct.kh_oid_map, ptr %29, i32 0, i32 6
  %31 = load ptr, ptr %30, align 8, !tbaa !18
  %32 = load i32, ptr %2, align 4, !tbaa !13
  %33 = zext i32 %32 to i64
  %34 = getelementptr inbounds nuw ptr, ptr %31, i64 %33
  %35 = load ptr, ptr %34, align 8, !tbaa !19
  store ptr %35, ptr %1, align 8, !tbaa !24
  %36 = load ptr, ptr %1, align 8, !tbaa !24
  %37 = getelementptr inbounds nuw %struct.island_bitmap, ptr %36, i32 0, i32 0
  %38 = load i32, ptr %37, align 4, !tbaa !13
  %39 = add i32 %38, -1
  store i32 %39, ptr %37, align 4, !tbaa !13
  %40 = icmp ne i32 %39, 0
  br i1 %40, label %43, label %41

41:                                               ; preds = %28
  %42 = load ptr, ptr %1, align 8, !tbaa !24
  call void @free(ptr noundef %42) #10
  br label %43

43:                                               ; preds = %41, %28
  br label %44

44:                                               ; preds = %43, %27
  %45 = load i32, ptr %2, align 4, !tbaa !13
  %46 = add i32 %45, 1
  store i32 %46, ptr %2, align 4, !tbaa !13
  br label %6, !llvm.loop !118

47:                                               ; preds = %6
  call void @llvm.lifetime.end.p0(i64 4, ptr %2) #10
  %48 = load ptr, ptr @island_marks, align 8, !tbaa !9
  call void @kh_destroy_oid_map(ptr noundef %48)
  br label %49

49:                                               ; preds = %47, %0
  store ptr inttoptr (i64 -1 to ptr), ptr @island_marks, align 8, !tbaa !9
  call void @llvm.lifetime.end.p0(i64 8, ptr %1) #10
  ret void
}