; Function Attrs: nounwind uwtable
define dso_local void @free_island_marks() local_unnamed_addr #3 {
  %1 = load ptr, ptr @island_marks, align 8, !tbaa !4
  %.not = icmp eq ptr %1, null
  br i1 %.not, label %32, label %.preheader

.preheader:                                       ; preds = %0
  %2 = load i32, ptr %1, align 8, !tbaa !9
  %.not69 = icmp eq i32 %2, 0
  br i1 %.not69, label %kh_destroy_oid_map.exit, label %.lr.ph

.lr.ph:                                           ; preds = %.preheader
  %3 = getelementptr inbounds nuw i8, ptr %1, i64 16
  %4 = getelementptr inbounds nuw i8, ptr %1, i64 32
  br label %5

5:                                                ; preds = %.lr.ph, %23
  %.010 = phi i32 [ 0, %.lr.ph ], [ %24, %23 ]
  %6 = load ptr, ptr %3, align 8, !tbaa !14
  %7 = lshr i32 %.010, 4
  %8 = zext nneg i32 %7 to i64
  %9 = getelementptr inbounds nuw i32, ptr %6, i64 %8
  %10 = load i32, ptr %9, align 4, !tbaa !15
  %11 = shl i32 %.010, 1
  %12 = and i32 %11, 30
  %13 = shl nuw i32 3, %12
  %14 = and i32 %10, %13
  %.not7 = icmp eq i32 %14, 0
  br i1 %.not7, label %15, label %23

15:                                               ; preds = %5
  %16 = load ptr, ptr %4, align 8, !tbaa !21
  %17 = zext i32 %.010 to i64
  %18 = getelementptr inbounds nuw ptr, ptr %16, i64 %17
  %19 = load ptr, ptr %18, align 8, !tbaa !22
  %20 = load i32, ptr %19, align 4, !tbaa !15
  %21 = add i32 %20, -1
  store i32 %21, ptr %19, align 4, !tbaa !15
  %.not8 = icmp eq i32 %21, 0
  br i1 %.not8, label %22, label %23

22:                                               ; preds = %15
  tail call void @free(ptr noundef nonnull %19) #17
  br label %23

23:                                               ; preds = %15, %22, %5
  %24 = add i32 %.010, 1
  %25 = load i32, ptr %1, align 8, !tbaa !9
  %.not6 = icmp eq i32 %24, %25
  br i1 %.not6, label %kh_destroy_oid_map.exit, label %5, !llvm.loop !111

kh_destroy_oid_map.exit:                          ; preds = %23, %.preheader
  %26 = getelementptr inbounds nuw i8, ptr %1, i64 16
  %27 = load ptr, ptr %26, align 8, !tbaa !14
  tail call void @free(ptr noundef %27) #17
  %28 = getelementptr inbounds nuw i8, ptr %1, i64 24
  %29 = load ptr, ptr %28, align 8, !tbaa !16
  tail call void @free(ptr noundef %29) #17
  %30 = getelementptr inbounds nuw i8, ptr %1, i64 32
  %31 = load ptr, ptr %30, align 8, !tbaa !21
  tail call void @free(ptr noundef %31) #17
  tail call void @free(ptr noundef nonnull %1) #17
  br label %32

32:                                               ; preds = %kh_destroy_oid_map.exit, %0
  store ptr inttoptr (i64 -1 to ptr), ptr @island_marks, align 8, !tbaa !4
  ret void
}